target datalayout = "e-m:e-p270:32:32-p271:32:32-p272:64:64-i64:64-i128:128-f80:128-n8:16:32:64-S128"
target triple = "x86_64-pc-linux-gnu"

%struct.call_foreach_t = type { ptr, ptr, i32, i8 }
%struct.pref_module = type { ptr, ptr, ptr, ptr, ptr, ptr, ptr, ptr, i32, i32, i8, i8, i32 }

@prefs_modules = internal global ptr null, align 8
@prefs_top_level_modules = internal global ptr null, align 8
@.str = private unnamed_addr constant [5 x i8] c"Epan\00", align 1
@.str.1 = private unnamed_addr constant [13 x i8] c"epan/prefs.c\00", align 1
@protocols_module = global ptr null, align 8
@__func__.prefs_deregister_protocol = private unnamed_addr constant [26 x i8] c"prefs_deregister_protocol\00", align 1
@.str.5 = private unnamed_addr constant [69 x i8] c"Protocol preferences being de-registered with an invalid protocol ID\00", align 1

; Function Attrs: null_pointer_is_valid sspstrong uwtable
define internal i32 @prefs_module_list_foreach(ptr noundef %0, ptr noundef %1, ptr noundef %2, i1 noundef zeroext %3) #1 {
  %5 = alloca ptr, align 8
  %6 = alloca ptr, align 8
  %7 = alloca ptr, align 8
  %8 = alloca i8, align 1
  %9 = alloca %struct.call_foreach_t, align 8
  store ptr %0, ptr %5, align 8
  store ptr %1, ptr %6, align 8
  store ptr %2, ptr %7, align 8
  %10 = zext i1 %3 to i8
  store i8 %10, ptr %8, align 1
  call void @llvm.lifetime.start.p0(i64 24, ptr %9) #17
  %11 = load ptr, ptr %5, align 8
  %12 = icmp eq ptr %11, null
  br i1 %12, label %13, label %15

13:                                               ; preds = %4
  %14 = load ptr, ptr @prefs_top_level_modules, align 8
  store ptr %14, ptr %5, align 8
  br label %15

15:                                               ; preds = %13, %4
  %16 = load ptr, ptr %6, align 8
  %17 = getelementptr inbounds nuw %struct.call_foreach_t, ptr %9, i32 0, i32 0
  store ptr %16, ptr %17, align 8
  %18 = load ptr, ptr %7, align 8
  %19 = getelementptr inbounds nuw %struct.call_foreach_t, ptr %9, i32 0, i32 1
  store ptr %18, ptr %19, align 8
  %20 = getelementptr inbounds nuw %struct.call_foreach_t, ptr %9, i32 0, i32 2
  store i32 0, ptr %20, align 8
  %21 = load i8, ptr %8, align 1, !range !6, !noundef !7
  %22 = trunc i8 %21 to i1
  %23 = getelementptr inbounds nuw %struct.call_foreach_t, ptr %9, i32 0, i32 3
  %24 = zext i1 %22 to i8
  store i8 %24, ptr %23, align 4
  %25 = load ptr, ptr %5, align 8
  %26 = call zeroext i1 @wmem_tree_foreach(ptr noundef %25, ptr noundef @call_foreach_cb, ptr noundef %9)
  %27 = getelementptr inbounds nuw %struct.call_foreach_t, ptr %9, i32 0, i32 2
  %28 = load i32, ptr %27, align 8
  call void @llvm.lifetime.end.p0(i64 24, ptr %9) #17
  ret i32 %28
}

; Function Attrs: null_pointer_is_valid sspstrong uwtable
define internal i32 @free_module_prefs(ptr noundef %0, ptr noundef %1) #1 {
  %3 = alloca ptr, align 8
  %4 = alloca ptr, align 8
  store ptr %0, ptr %3, align 8
  store ptr %1, ptr %4, align 8
  %5 = load ptr, ptr %3, align 8
  %6 = getelementptr inbounds nuw %struct.pref_module, ptr %5, i32 0, i32 5
  %7 = load ptr, ptr %6, align 8
  %8 = icmp ne ptr %7, null
  br i1 %8, label %9, label %16

9:                                                ; preds = %2
  %10 = load ptr, ptr %3, align 8
  %11 = getelementptr inbounds nuw %struct.pref_module, ptr %10, i32 0, i32 5
  %12 = load ptr, ptr %11, align 8
  call void @g_list_foreach(ptr noundef %12, ptr noundef @free_pref, ptr noundef null)
  %13 = load ptr, ptr %3, align 8
  %14 = getelementptr inbounds nuw %struct.pref_module, ptr %13, i32 0, i32 5
  %15 = load ptr, ptr %14, align 8
  call void @g_list_free(ptr noundef %15)
  br label %16

16:                                               ; preds = %9, %2
  %17 = load ptr, ptr %3, align 8
  %18 = getelementptr inbounds nuw %struct.pref_module, ptr %17, i32 0, i32 5
  store ptr null, ptr %18, align 8
  %19 = load ptr, ptr %3, align 8
  %20 = getelementptr inbounds nuw %struct.pref_module, ptr %19, i32 0, i32 8
  store i32 0, ptr %20, align 8
  %21 = load ptr, ptr %3, align 8
  %22 = getelementptr inbounds nuw %struct.pref_module, ptr %21, i32 0, i32 7
  %23 = load ptr, ptr %22, align 8
  %24 = icmp ne ptr %23, null
  br i1 %24, label %25, label %30

25:                                               ; preds = %16
  %26 = load ptr, ptr %3, align 8
  %27 = getelementptr inbounds nuw %struct.pref_module, ptr %26, i32 0, i32 7
  %28 = load ptr, ptr %27, align 8
  %29 = call i32 @prefs_module_list_foreach(ptr noundef %28, ptr noundef @free_module_prefs, ptr noundef null, i1 noundef zeroext false)
  br label %30

30:                                               ; preds = %25, %16
  ret i32 0
}

; Function Attrs: null_pointer_is_valid sspstrong uwtable
define internal void @prefs_deregister_module(ptr noundef %0, ptr noundef %1, ptr noundef %2) #1 {
  %4 = alloca ptr, align 8
  %5 = alloca ptr, align 8
  %6 = alloca ptr, align 8
  %7 = alloca ptr, align 8
  %8 = alloca i32, align 4
  store ptr %0, ptr %4, align 8
  store ptr %1, ptr %5, align 8
  store ptr %2, ptr %6, align 8
  call void @llvm.lifetime.start.p0(i64 8, ptr %7) #17
  %9 = load ptr, ptr @prefs_modules, align 8
  %10 = load ptr, ptr %5, align 8
  %11 = call ptr @wmem_tree_remove_string(ptr noundef %9, ptr noundef %10, i32 noundef 1)
  store ptr %11, ptr %7, align 8
  %12 = load ptr, ptr %7, align 8
  %13 = icmp ne ptr %12, null
  br i1 %13, label %15, label %14

14:                                               ; preds = %3
  store i32 1, ptr %8, align 4
  br label %39

15:                                               ; preds = %3
  %16 = load ptr, ptr %4, align 8
  %17 = icmp eq ptr %16, null
  br i1 %17, label %18, label %22

18:                                               ; preds = %15
  %19 = load ptr, ptr @prefs_top_level_modules, align 8
  %20 = load ptr, ptr %6, align 8
  %21 = call ptr @wmem_tree_remove_string(ptr noundef %19, ptr noundef %20, i32 noundef 1)
  br label %34

22:                                               ; preds = %15
  %23 = load ptr, ptr %4, align 8
  %24 = getelementptr inbounds nuw %struct.pref_module, ptr %23, i32 0, i32 7
  %25 = load ptr, ptr %24, align 8
  %26 = icmp ne ptr %25, null
  br i1 %26, label %27, label %33

27:                                               ; preds = %22
  %28 = load ptr, ptr %4, align 8
  %29 = getelementptr inbounds nuw %struct.pref_module, ptr %28, i32 0, i32 7
  %30 = load ptr, ptr %29, align 8
  %31 = load ptr, ptr %6, align 8
  %32 = call ptr @wmem_tree_remove_string(ptr noundef %30, ptr noundef %31, i32 noundef 1)
  br label %33

33:                                               ; preds = %27, %22
  br label %34

34:                                               ; preds = %33, %18
  %35 = load ptr, ptr %7, align 8
  %36 = call i32 @free_module_prefs(ptr noundef %35, ptr noundef null)
  %37 = call ptr @wmem_epan_scope()
  %38 = load ptr, ptr %7, align 8
  call void @wmem_free(ptr noundef %37, ptr noundef %38)
  store i32 0, ptr %8, align 4
  br label %39

39:                                               ; preds = %34, %14
  call void @llvm.lifetime.end.p0(i64 8, ptr %7) #17
  %40 = load i32, ptr %8, align 4
  switch i32 %40, label %42 [
    i32 0, label %41
    i32 1, label %41
  ]

41:                                               ; preds = %39, %39
  ret void

42:                                               ; preds = %39
  unreachable
}

; Function Attrs: null_pointer_is_valid sspstrong uwtable
define hidden void @prefs_deregister_protocol(i32 noundef %0) #1 {
  %2 = alloca i32, align 4
  %3 = alloca ptr, align 8
  store i32 %0, ptr %2, align 4
  call void @llvm.lifetime.start.p0(i64 8, ptr %3) #17
  %4 = load i32, ptr %2, align 4
  %5 = call ptr @find_protocol_by_id(i32 noundef %4)
  store ptr %5, ptr %3, align 8
  %6 = load ptr, ptr %3, align 8
  %7 = icmp eq ptr %6, null
  br i1 %7, label %8, label %9

8:                                                ; preds = %1
  call void (ptr, i32, ptr, i64, ptr, ptr, ...) @ws_log_fatal_full(ptr noundef @.str, i32 noundef 7, ptr noundef @.str.1, i64 noundef 663, ptr noundef @__func__.prefs_deregister_protocol, ptr noundef @.str.5) #18
  unreachable

9:                                                ; preds = %1
  %10 = load ptr, ptr @protocols_module, align 8
  %11 = load i32, ptr %2, align 4
  %12 = call ptr @proto_get_protocol_filter_name(i32 noundef %11)
  %13 = load ptr, ptr %3, align 8
  %14 = call ptr @proto_get_protocol_short_name(ptr noundef %13)
  call void @prefs_deregister_module(ptr noundef %10, ptr noundef %12, ptr noundef %14)
  call void @llvm.lifetime.end.p0(i64 8, ptr %3) #17
  ret void
}