; Function Attrs: null_pointer_is_valid sspstrong uwtable
define hidden void @prefs_deregister_protocol(i32 noundef %0) local_unnamed_addr #1 {
  %2 = alloca %struct.call_foreach_t, align 8
  %3 = tail call ptr @find_protocol_by_id(i32 noundef %0)
  %4 = icmp eq ptr %3, null
  br i1 %4, label %5, label %6

5:                                                ; preds = %1
  tail call void (ptr, i32, ptr, i64, ptr, ptr, ...) @ws_log_fatal_full(ptr noundef nonnull @.str, i32 noundef 7, ptr noundef nonnull @.str.1, i64 noundef 663, ptr noundef nonnull @__func__.prefs_deregister_protocol, ptr noundef nonnull @.str.5) #26
  unreachable

6:                                                ; preds = %1
  %7 = load ptr, ptr @protocols_module, align 8
  %8 = tail call ptr @proto_get_protocol_filter_name(i32 noundef %0)
  %9 = tail call ptr @proto_get_protocol_short_name(ptr noundef nonnull %3)
  %10 = load ptr, ptr @prefs_modules, align 8
  %11 = tail call ptr @wmem_tree_remove_string(ptr noundef %10, ptr noundef %8, i32 noundef 1)
  %.not.i = icmp eq ptr %11, null
  br i1 %.not.i, label %prefs_deregister_module.exit, label %12

12:                                               ; preds = %6
  %13 = icmp eq ptr %7, null
  br i1 %13, label %14, label %16

14:                                               ; preds = %12
  %15 = load ptr, ptr @prefs_top_level_modules, align 8
  br label %.sink.split.i

16:                                               ; preds = %12
  %17 = getelementptr inbounds nuw i8, ptr %7, i64 56
  %18 = load ptr, ptr %17, align 8
  %.not11.i = icmp eq ptr %18, null
  br i1 %.not11.i, label %20, label %.sink.split.i

.sink.split.i:                                    ; preds = %16, %14
  %.sink.i = phi ptr [ %15, %14 ], [ %18, %16 ]
  %19 = tail call ptr @wmem_tree_remove_string(ptr noundef %.sink.i, ptr noundef %9, i32 noundef 1)
  br label %20

20:                                               ; preds = %.sink.split.i, %16
  %21 = getelementptr inbounds nuw i8, ptr %11, i64 40
  %22 = load ptr, ptr %21, align 8
  %.not.i.i = icmp eq ptr %22, null
  br i1 %.not.i.i, label %25, label %23

23:                                               ; preds = %20
  tail call void @g_list_foreach(ptr noundef nonnull %22, ptr noundef nonnull @free_pref, ptr noundef null)
  %24 = load ptr, ptr %21, align 8
  tail call void @g_list_free(ptr noundef %24)
  br label %25

25:                                               ; preds = %23, %20
  store ptr null, ptr %21, align 8
  %26 = getelementptr inbounds nuw i8, ptr %11, i64 64
  store i32 0, ptr %26, align 8
  %27 = getelementptr inbounds nuw i8, ptr %11, i64 56
  %28 = load ptr, ptr %27, align 8
  %.not8.i.i = icmp eq ptr %28, null
  br i1 %.not8.i.i, label %free_module_prefs.exit.i, label %29

29:                                               ; preds = %25
  call void @llvm.lifetime.start.p0(i64 24, ptr nonnull %2) #25
  store ptr @free_module_prefs, ptr %2, align 8
  %30 = getelementptr inbounds nuw i8, ptr %2, i64 8
  store ptr null, ptr %30, align 8
  %31 = getelementptr inbounds nuw i8, ptr %2, i64 16
  store i32 0, ptr %31, align 8
  %32 = getelementptr inbounds nuw i8, ptr %2, i64 20
  store i8 0, ptr %32, align 4
  %33 = call zeroext i1 @wmem_tree_foreach(ptr noundef nonnull %28, ptr noundef nonnull @call_foreach_cb, ptr noundef nonnull %2)
  call void @llvm.lifetime.end.p0(i64 24, ptr nonnull %2) #25
  br label %free_module_prefs.exit.i

free_module_prefs.exit.i:                         ; preds = %29, %25
  %34 = call ptr @wmem_epan_scope()
  call void @wmem_free(ptr noundef %34, ptr noundef nonnull %11)
  br label %prefs_deregister_module.exit

prefs_deregister_module.exit:                     ; preds = %6, %free_module_prefs.exit.i
  ret void
}